(lp0
S'background'
p1
aVperson
p2
aVbicycle
p3
aVcar
p4
aVmotorcycle
p5
aVairplane
p6
aVbus
p7
aVtrain
p8
aVtruck
p9
aVboat
p10
aVtraffic light
p11
aVfire hydrant
p12
aVstop sign
p13
aVparking meter
p14
aVbench
p15
aVbird
p16
aVcat
p17
aVdog
p18
aVhorse
p19
aVsheep
p20
aVcow
p21
aVelephant
p22
aVbear
p23
aVzebra
p24
aVgiraffe
p25
aVbackpack
p26
aVumbrella
p27
aVhandbag
p28
aVtie
p29
aVsuitcase
p30
aVfrisbee
p31
aVskis
p32
aVsnowboard
p33
aVsports ball
p34
aVkite
p35
aVbaseball bat
p36
aVbaseball glove
p37
aVskateboard
p38
aVsurfboard
p39
aVtennis racket
p40
aVbottle
p41
aVwine glass
p42
aVcup
p43
aVfork
p44
aVknife
p45
aVspoon
p46
aVbowl
p47
aVbanana
p48
aVapple
p49
aVsandwich
p50
aVorange
p51
aVbroccoli
p52
aVcarrot
p53
aVhot dog
p54
aVpizza
p55
aVdonut
p56
aVcake
p57
aVchair
p58
aVcouch
p59
aVpotted plant
p60
aVbed
p61
aVdining table
p62
aVtoilet
p63
aVtv
p64
aVlaptop
p65
aVmouse
p66
aVremote
p67
aVkeyboard
p68
aVcell phone
p69
aVmicrowave
p70
aVoven
p71
aVtoaster
p72
aVsink
p73
aVrefrigerator
p74
aVbook
p75
aVclock
p76
aVvase
p77
aVscissors
p78
aVteddy bear
p79
aVhair drier
p80
aVtoothbrush
p81
a.